target datalayout = "e-m:e-p270:32:32-p271:32:32-p272:64:64-i64:64-i128:128-f80:128-n8:16:32:64-S128"
target triple = "x86_64-pc-linux-gnu"

%struct._dcerpc_info = type { ptr, i32, i64, i8, i8, i8, i32, i32, i32, i32, i32, i32, i32, i32, ptr, ptr, ptr, ptr, %struct.anon }
%struct.anon = type { i8, ptr, ptr, ptr, i8 }
%struct._packet_info = type { ptr, ptr, i32, i32, %struct.nstime_t, %struct.nstime_t, %struct.nstime_t, i8, ptr, ptr, ptr, ptr, %struct._address, %struct._address, %struct._address, %struct._address, %struct._address, %struct._address, i32, ptr, i8, [3 x i8], %struct.anon.0, i32, i32, i32, i32, ptr, i8, ptr, ptr, i16, i16, i32, i32, i16, i32, i32, ptr, ptr, ptr, i8, i8, i16, i16, i16, i32, i16, i16, ptr, ptr, ptr, ptr, ptr, i32, i32 }
%struct.nstime_t = type { i64, i32 }
%struct._address = type { i32, i32, ptr, ptr }
%struct.anon.0 = type { i8, [3 x i8] }

@hf_fileexp_afsreturndesc_tokenid_high = internal global i32 0, align 4
@hf_fileexp_afsreturndesc_tokenid_low = internal global i32 0, align 4
@hf_fileexp_afsreturndesc_type_high = internal global i32 0, align 4
@hf_fileexp_afsreturndesc_type_low = internal global i32 0, align 4
@ett_fileexp_afsReturnDesc = internal global i32 0, align 4
@.str.473 = private unnamed_addr constant [11 x i8] c"afsFlags: \00", align 1
@.str.474 = private unnamed_addr constant [15 x i8] c"afsReturnDesc:\00", align 1
@.str.475 = private unnamed_addr constant [26 x i8] c" TokenId:%u/%u Type:%u/%u\00", align 1

; Function Attrs: null_pointer_is_valid sspstrong uwtable
define internal i32 @dissect_afsReturnDesc(ptr noundef %0, i32 noundef %1, ptr noundef %2, ptr noundef %3, ptr noundef %4, ptr noundef %5) #0 {
  %7 = alloca i32, align 4
  %8 = alloca ptr, align 8
  %9 = alloca i32, align 4
  %10 = alloca ptr, align 8
  %11 = alloca ptr, align 8
  %12 = alloca ptr, align 8
  %13 = alloca ptr, align 8
  %14 = alloca ptr, align 8
  %15 = alloca ptr, align 8
  %16 = alloca i32, align 4
  %17 = alloca i32, align 4
  %18 = alloca i32, align 4
  %19 = alloca i32, align 4
  %20 = alloca i32, align 4
  %21 = alloca i32, align 4
  store ptr %0, ptr %8, align 8
  store i32 %1, ptr %9, align 4
  store ptr %2, ptr %10, align 8
  store ptr %3, ptr %11, align 8
  store ptr %4, ptr %12, align 8
  store ptr %5, ptr %13, align 8
  call void @llvm.lifetime.start.p0(i64 8, ptr %14) #4
  store ptr null, ptr %14, align 8
  call void @llvm.lifetime.start.p0(i64 8, ptr %15) #4
  store ptr null, ptr %15, align 8
  call void @llvm.lifetime.start.p0(i64 4, ptr %16) #4
  %22 = load i32, ptr %9, align 4
  store i32 %22, ptr %16, align 4
  call void @llvm.lifetime.start.p0(i64 4, ptr %17) #4
  call void @llvm.lifetime.start.p0(i64 4, ptr %18) #4
  call void @llvm.lifetime.start.p0(i64 4, ptr %19) #4
  call void @llvm.lifetime.start.p0(i64 4, ptr %20) #4
  %23 = load ptr, ptr %12, align 8
  %24 = getelementptr inbounds nuw %struct._dcerpc_info, ptr %23, i32 0, i32 4
  %25 = load i8, ptr %24, align 1, !range !6, !noundef !7
  %26 = trunc i8 %25 to i1
  br i1 %26, label %27, label %29

27:                                               ; preds = %6
  %28 = load i32, ptr %9, align 4
  store i32 %28, ptr %7, align 4
  store i32 1, ptr %21, align 4
  br label %97

29:                                               ; preds = %6
  %30 = load ptr, ptr %11, align 8
  %31 = icmp ne ptr %30, null
  br i1 %31, label %32, label %38

32:                                               ; preds = %29
  %33 = load ptr, ptr %11, align 8
  %34 = load ptr, ptr %8, align 8
  %35 = load i32, ptr %9, align 4
  %36 = load i32, ptr @ett_fileexp_afsReturnDesc, align 4
  %37 = call ptr @proto_tree_add_subtree(ptr noundef %33, ptr noundef %34, i32 noundef %35, i32 noundef -1, i32 noundef %36, ptr noundef %14, ptr noundef @.str.474)
  store ptr %37, ptr %15, align 8
  br label %38

38:                                               ; preds = %32, %29
  %39 = load ptr, ptr %8, align 8
  %40 = load i32, ptr %9, align 4
  %41 = load ptr, ptr %10, align 8
  %42 = load ptr, ptr %15, align 8
  %43 = load ptr, ptr %12, align 8
  %44 = load ptr, ptr %13, align 8
  %45 = call i32 @dissect_afsFid(ptr noundef %39, i32 noundef %40, ptr noundef %41, ptr noundef %42, ptr noundef %43, ptr noundef %44)
  store i32 %45, ptr %9, align 4
  %46 = load ptr, ptr %8, align 8
  %47 = load i32, ptr %9, align 4
  %48 = load ptr, ptr %10, align 8
  %49 = load ptr, ptr %15, align 8
  %50 = load ptr, ptr %12, align 8
  %51 = load ptr, ptr %13, align 8
  %52 = load i32, ptr @hf_fileexp_afsreturndesc_tokenid_high, align 4
  %53 = call i32 @dissect_ndr_uint32(ptr noundef %46, i32 noundef %47, ptr noundef %48, ptr noundef %49, ptr noundef %50, ptr noundef %51, i32 noundef %52, ptr noundef %17)
  store i32 %53, ptr %9, align 4
  %54 = load ptr, ptr %8, align 8
  %55 = load i32, ptr %9, align 4
  %56 = load ptr, ptr %10, align 8
  %57 = load ptr, ptr %15, align 8
  %58 = load ptr, ptr %12, align 8
  %59 = load ptr, ptr %13, align 8
  %60 = load i32, ptr @hf_fileexp_afsreturndesc_tokenid_low, align 4
  %61 = call i32 @dissect_ndr_uint32(ptr noundef %54, i32 noundef %55, ptr noundef %56, ptr noundef %57, ptr noundef %58, ptr noundef %59, i32 noundef %60, ptr noundef %18)
  store i32 %61, ptr %9, align 4
  %62 = load ptr, ptr %8, align 8
  %63 = load i32, ptr %9, align 4
  %64 = load ptr, ptr %10, align 8
  %65 = load ptr, ptr %15, align 8
  %66 = load ptr, ptr %12, align 8
  %67 = load ptr, ptr %13, align 8
  %68 = load i32, ptr @hf_fileexp_afsreturndesc_type_high, align 4
  %69 = call i32 @dissect_ndr_uint32(ptr noundef %62, i32 noundef %63, ptr noundef %64, ptr noundef %65, ptr noundef %66, ptr noundef %67, i32 noundef %68, ptr noundef %19)
  store i32 %69, ptr %9, align 4
  %70 = load ptr, ptr %8, align 8
  %71 = load i32, ptr %9, align 4
  %72 = load ptr, ptr %10, align 8
  %73 = load ptr, ptr %15, align 8
  %74 = load ptr, ptr %12, align 8
  %75 = load ptr, ptr %13, align 8
  %76 = load i32, ptr @hf_fileexp_afsreturndesc_type_low, align 4
  %77 = call i32 @dissect_ndr_uint32(ptr noundef %70, i32 noundef %71, ptr noundef %72, ptr noundef %73, ptr noundef %74, ptr noundef %75, i32 noundef %76, ptr noundef %20)
  store i32 %77, ptr %9, align 4
  %78 = load ptr, ptr %10, align 8
  %79 = getelementptr inbounds nuw %struct._packet_info, ptr %78, i32 0, i32 1
  %80 = load ptr, ptr %79, align 8
  %81 = load i32, ptr %17, align 4
  %82 = load i32, ptr %18, align 4
  %83 = load i32, ptr %19, align 4
  %84 = load i32, ptr %20, align 4
  call void (ptr, i32, ptr, ...) @col_append_fstr(ptr noundef %80, i32 noundef 25, ptr noundef @.str.475, i32 noundef %81, i32 noundef %82, i32 noundef %83, i32 noundef %84)
  %85 = load ptr, ptr %8, align 8
  %86 = load i32, ptr %9, align 4
  %87 = load ptr, ptr %10, align 8
  %88 = load ptr, ptr %15, align 8
  %89 = load ptr, ptr %12, align 8
  %90 = load ptr, ptr %13, align 8
  %91 = call i32 @dissect_ndr_pointer(ptr noundef %85, i32 noundef %86, ptr noundef %87, ptr noundef %88, ptr noundef %89, ptr noundef %90, ptr noundef @dissect_afsFlags, i32 noundef 1, ptr noundef @.str.473, i32 noundef -1)
  store i32 %91, ptr %9, align 4
  %92 = load ptr, ptr %14, align 8
  %93 = load i32, ptr %9, align 4
  %94 = load i32, ptr %16, align 4
  %95 = sub i32 %93, %94
  call void @proto_item_set_len(ptr noundef %92, i32 noundef %95)
  %96 = load i32, ptr %9, align 4
  store i32 %96, ptr %7, align 4
  store i32 1, ptr %21, align 4
  br label %97

97:                                               ; preds = %38, %27
  call void @llvm.lifetime.end.p0(i64 4, ptr %20) #4
  call void @llvm.lifetime.end.p0(i64 4, ptr %19) #4
  call void @llvm.lifetime.end.p0(i64 4, ptr %18) #4
  call void @llvm.lifetime.end.p0(i64 4, ptr %17) #4
  call void @llvm.lifetime.end.p0(i64 4, ptr %16) #4
  call void @llvm.lifetime.end.p0(i64 8, ptr %15) #4
  call void @llvm.lifetime.end.p0(i64 8, ptr %14) #4
  %98 = load i32, ptr %7, align 4
  ret i32 %98
}