; Function Attrs: null_pointer_is_valid sspstrong uwtable
define internal i32 @dissect_afsReturnDesc(ptr noundef %0, i32 noundef %1, ptr noundef %2, ptr noundef %3, ptr noundef %4, ptr noundef %5) #0 {
  %7 = alloca ptr, align 8
  %8 = alloca i32, align 4
  %9 = alloca i32, align 4
  %10 = alloca i32, align 4
  %11 = alloca i32, align 4
  call void @llvm.lifetime.start.p0(i64 8, ptr nonnull %7) #4
  store ptr null, ptr %7, align 8
  call void @llvm.lifetime.start.p0(i64 4, ptr nonnull %8) #4
  call void @llvm.lifetime.start.p0(i64 4, ptr nonnull %9) #4
  call void @llvm.lifetime.start.p0(i64 4, ptr nonnull %10) #4
  call void @llvm.lifetime.start.p0(i64 4, ptr nonnull %11) #4
  %12 = getelementptr inbounds nuw i8, ptr %4, i64 25
  %13 = load i8, ptr %12, align 1, !range !6, !noundef !7
  %14 = trunc nuw i8 %13 to i1
  br i1 %14, label %38, label %15

15:                                               ; preds = %6
  %.not = icmp eq ptr %3, null
  br i1 %.not, label %19, label %16

16:                                               ; preds = %15
  %17 = load i32, ptr @ett_fileexp_afsReturnDesc, align 4
  %18 = call ptr @proto_tree_add_subtree(ptr noundef nonnull %3, ptr noundef %0, i32 noundef %1, i32 noundef -1, i32 noundef %17, ptr noundef nonnull %7, ptr noundef nonnull @.str.474)
  br label %19

19:                                               ; preds = %16, %15
  %.047 = phi ptr [ %18, %16 ], [ null, %15 ]
  %20 = call i32 @dissect_afsFid(ptr noundef %0, i32 noundef %1, ptr noundef %2, ptr noundef %.047, ptr noundef %4, ptr noundef %5)
  %21 = load i32, ptr @hf_fileexp_afsreturndesc_tokenid_high, align 4
  %22 = call i32 @dissect_ndr_uint32(ptr noundef %0, i32 noundef %20, ptr noundef %2, ptr noundef %.047, ptr noundef %4, ptr noundef %5, i32 noundef %21, ptr noundef nonnull %8)
  %23 = load i32, ptr @hf_fileexp_afsreturndesc_tokenid_low, align 4
  %24 = call i32 @dissect_ndr_uint32(ptr noundef %0, i32 noundef %22, ptr noundef %2, ptr noundef %.047, ptr noundef %4, ptr noundef %5, i32 noundef %23, ptr noundef nonnull %9)
  %25 = load i32, ptr @hf_fileexp_afsreturndesc_type_high, align 4
  %26 = call i32 @dissect_ndr_uint32(ptr noundef %0, i32 noundef %24, ptr noundef %2, ptr noundef %.047, ptr noundef %4, ptr noundef %5, i32 noundef %25, ptr noundef nonnull %10)
  %27 = load i32, ptr @hf_fileexp_afsreturndesc_type_low, align 4
  %28 = call i32 @dissect_ndr_uint32(ptr noundef %0, i32 noundef %26, ptr noundef %2, ptr noundef %.047, ptr noundef %4, ptr noundef %5, i32 noundef %27, ptr noundef nonnull %11)
  %29 = getelementptr inbounds nuw i8, ptr %2, i64 8
  %30 = load ptr, ptr %29, align 8
  %31 = load i32, ptr %8, align 4
  %32 = load i32, ptr %9, align 4
  %33 = load i32, ptr %10, align 4
  %34 = load i32, ptr %11, align 4
  call void (ptr, i32, ptr, ...) @col_append_fstr(ptr noundef %30, i32 noundef 25, ptr noundef nonnull @.str.475, i32 noundef %31, i32 noundef %32, i32 noundef %33, i32 noundef %34)
  %35 = call i32 @dissect_ndr_pointer(ptr noundef %0, i32 noundef %28, ptr noundef %2, ptr noundef %.047, ptr noundef %4, ptr noundef %5, ptr noundef nonnull @dissect_afsFlags, i32 noundef 1, ptr noundef nonnull @.str.473, i32 noundef -1)
  %36 = load ptr, ptr %7, align 8
  %37 = sub i32 %35, %1
  call void @proto_item_set_len(ptr noundef %36, i32 noundef %37)
  br label %38

38:                                               ; preds = %6, %19
  %.0 = phi i32 [ %35, %19 ], [ %1, %6 ]
  call void @llvm.lifetime.end.p0(i64 4, ptr nonnull %11) #4
  call void @llvm.lifetime.end.p0(i64 4, ptr nonnull %10) #4
  call void @llvm.lifetime.end.p0(i64 4, ptr nonnull %9) #4
  call void @llvm.lifetime.end.p0(i64 4, ptr nonnull %8) #4
  call void @llvm.lifetime.end.p0(i64 8, ptr nonnull %7) #4
  ret i32 %.0
}